Certificate:
    Data:
        Version: 1 (0x0)
        Serial Number: 1 (0x1)
        Signature Algorithm: sha256WithRSAEncryption
        Issuer: C=US, ST=CA, L=Santa Clara, O=Real Time Innovations, CN=RTI CA/emailAddress=secure@rti.com
        Validity
            Not Before: Mar 16 14:53:58 2022 GMT
            Not After : Mar 16 14:53:58 2023 GMT
        Subject: C=US, ST=CA, O=Real Time Innovations, CN=HelloSecurePublisher/emailAddress=pub@rti.com
        Subject Public Key Info:
            Public Key Algorithm: rsaEncryption
                RSA Public-Key: (2048 bit)
                Modulus:
                    00:eb:49:e4:66:d8:ab:8f:ca:4d:7b:8e:99:6d:82:
                    de:ec:27:a1:f8:31:b6:e5:ef:39:ce:1d:6d:72:68:
                    98:ba:ed:e9:27:51:8d:26:6b:60:1c:d4:7c:a8:4e:
                    d9:fd:47:4f:57:d6:da:e8:30:d2:c1:7c:59:e6:d4:
                    e8:41:c5:6c:a7:c3:5b:d2:7e:99:59:fb:ea:db:3b:
                    dd:09:28:b4:40:6b:93:8c:91:cd:a9:b8:94:e0:43:
                    05:15:fe:28:5c:84:06:8a:86:df:57:df:04:2d:44:
                    2f:a4:4e:9f:63:04:7c:6b:96:f7:d8:c6:53:b7:77:
                    37:f0:f0:32:39:49:77:94:72:38:b3:8b:62:ec:f3:
                    9a:51:1e:1f:1c:9d:e6:98:e9:b5:70:25:64:e9:f7:
                    f1:97:fc:8e:d7:7d:3b:cd:f6:0c:e1:aa:e0:6d:74:
                    2d:da:0d:39:29:07:6a:e4:4f:35:14:86:ff:fb:82:
                    98:e5:f4:f3:c2:0f:0a:a3:16:5f:3d:54:e2:5b:4b:
                    8b:8e:20:b4:95:80:e3:f0:23:fd:d6:44:53:e2:78:
                    af:f8:62:3b:b0:ab:e3:8e:3b:dc:04:b6:1e:b3:d4:
                    04:67:25:82:9e:bc:9b:ca:30:d4:4f:42:50:58:ae:
                    94:a3:2c:9b:49:8f:6e:47:73:f3:9a:7b:22:56:bc:
                    a8:51
                Exponent: 65537 (0x10001)
    Signature Algorithm: sha256WithRSAEncryption
         4f:2f:c2:75:eb:d6:8e:43:dd:17:88:7c:8a:f4:d1:a0:e6:8c:
         a0:be:1f:32:64:09:57:64:a2:c1:78:b5:8b:81:7e:ef:85:83:
         53:ad:0c:d6:70:90:81:6f:4e:21:bf:09:88:7e:00:76:01:13:
         ba:db:76:39:65:f4:29:6b:e2:c9:06:3c:ae:73:8b:1a:f7:b6:
         21:d5:6b:6a:b3:c0:91:f7:e8:54:79:a1:25:d2:2d:9a:d4:3e:
         a8:ed:4b:88:51:e1:11:44:f4:1b:1c:60:e1:d0:bc:ae:bd:1e:
         33:d7:c1:fb:83:bc:f1:88:0c:18:6f:87:3a:76:a9:9f:68:b9:
         3e:a2:a4:52:93:83:d4:c6:b0:5c:57:49:35:2e:49:14:ed:f2:
         13:15:56:a8:fb:84:ee:12:fe:31:8a:7d:dc:0b:c2:71:41:5c:
         56:9b:90:6e:28:d2:a5:32:98:f8:1d:ab:8f:68:40:42:a8:fa:
         49:a2:19:19:15:2d:dc:a8:3b:7c:39:f0:af:61:12:d4:78:94:
         61:0f:92:c1:e7:68:1e:15:c2:82:8f:b6:a3:d4:ff:0f:6f:2d:
         61:1a:3d:19:0e:b5:29:b4:76:21:f9:db:be:3d:5b:74:e6:07:
         f2:e4:3c:0d:68:9d:35:23:ab:72:97:5b:7a:f4:62:da:84:76:
         e4:0b:69:e8
-----BEGIN CERTIFICATE-----
MIIDajCCAlICAQEwDQYJKoZIhvcNAQELBQAwgYAxCzAJBgNVBAYTAlVTMQswCQYD
VQQIDAJDQTEUMBIGA1UEBwwLU2FudGEgQ2xhcmExHjAcBgNVBAoMFVJlYWwgVGlt
ZSBJbm5vdmF0aW9uczEPMA0GA1UEAwwGUlRJIENBMR0wGwYJKoZIhvcNAQkBFg5z
ZWN1cmVAcnRpLmNvbTAeFw0yMjAzMTYxNDUzNThaFw0yMzAzMTYxNDUzNThaMHUx
CzAJBgNVBAYTAlVTMQswCQYDVQQIDAJDQTEeMBwGA1UECgwVUmVhbCBUaW1lIElu
bm92YXRpb25zMR0wGwYDVQQDDBRIZWxsb1NlY3VyZVB1Ymxpc2hlcjEaMBgGCSqG
SIb3DQEJARYLcHViQHJ0aS5jb20wggEiMA0GCSqGSIb3DQEBAQUAA4IBDwAwggEK
AoIBAQDrSeRm2KuPyk17jpltgt7sJ6H4Mbbl7znOHW1yaJi67eknUY0ma2Ac1Hyo
Ttn9R09X1troMNLBfFnm1OhBxWynw1vSfplZ++rbO90JKLRAa5OMkc2puJTgQwUV
/ihchAaKht9X3wQtRC+kTp9jBHxrlvfYxlO3dzfw8DI5SXeUcjizi2Ls85pRHh8c
neaY6bVwJWTp9/GX/I7XfTvN9gzhquBtdC3aDTkpB2rkTzUUhv/7gpjl9PPCDwqj
Fl89VOJbS4uOILSVgOPwI/3WRFPieK/4Yjuwq+OOO9wEth6z1ARnJYKevJvKMNRP
QlBYrpSjLJtJj25Hc/OaeyJWvKhRAgMBAAEwDQYJKoZIhvcNAQELBQADggEBAE8v
wnXr1o5D3ReIfIr00aDmjKC+HzJkCVdkosF4tYuBfu+Fg1OtDNZwkIFvTiG/CYh+
AHYBE7rbdjll9Clr4skGPK5zixr3tiHVa2qzwJH36FR5oSXSLZrUPqjtS4hR4RFE
9BscYOHQvK69HjPXwfuDvPGIDBhvhzp2qZ9ouT6ipFKTg9TGsFxXSTUuSRTt8hMV
Vqj7hO4S/jGKfdwLwnFBXFabkG4o0qUymPgdq49oQEKo+kmiGRkVLdyoO3w58K9h
EtR4lGEPksHnaB4VwoKPtqPU/w9vLWEaPRkOtSm0diH52749W3TmB/LkPA1onTUj
q3KXW3r0YtqEduQLaeg=
-----END CERTIFICATE-----
