Certificate:
    Data:
        Version: 1 (0x0)
        Serial Number: 2 (0x2)
        Signature Algorithm: sha256WithRSAEncryption
        Issuer: C=US, ST=CA, L=Santa Clara, O=Real Time Innovations, CN=RTI CA/emailAddress=secure@rti.com
        Validity
            Not Before: Mar 16 14:54:00 2022 GMT
            Not After : Mar 16 14:54:00 2023 GMT
        Subject: C=US, ST=CA, O=Real Time Innovations, CN=HelloSecureSubscriber/emailAddress=sub@rti.com
        Subject Public Key Info:
            Public Key Algorithm: rsaEncryption
                RSA Public-Key: (2048 bit)
                Modulus:
                    00:ec:a9:ca:61:fc:75:24:01:3a:57:78:27:d8:3e:
                    0a:58:49:8c:10:c7:42:ae:b5:87:e3:cd:97:64:69:
                    16:a7:07:ea:c3:6d:9d:86:a9:1e:46:99:6d:25:3b:
                    57:de:06:11:48:42:bd:56:b9:e8:55:d7:56:0e:af:
                    5d:ea:25:ea:59:6d:74:37:01:6e:86:49:e9:60:49:
                    25:f3:4d:f6:be:3d:4e:79:5b:dc:3c:0f:88:22:6b:
                    db:ec:b3:fa:a8:6c:de:d7:90:ab:39:60:a9:23:6a:
                    f5:56:92:a3:04:3f:3e:33:38:92:ec:df:a0:f1:5e:
                    21:a0:13:0a:c6:52:57:a8:74:ee:60:72:56:7b:14:
                    58:3e:7c:b6:f4:fc:ac:cb:c0:af:4e:bd:7f:d2:62:
                    82:38:db:e8:2e:c8:87:36:4c:a9:66:a0:0a:af:d7:
                    da:b8:da:27:a9:b4:21:e4:ac:fd:15:c9:f5:6d:d0:
                    a1:87:fc:16:5f:d0:1c:32:7b:61:ea:51:d7:4d:4b:
                    49:91:0b:6f:80:1e:85:b4:6e:9e:48:9f:43:78:45:
                    8f:6d:10:9f:b9:25:ff:41:dc:b8:90:63:e8:07:bc:
                    4a:97:d7:41:f9:b4:8c:93:5a:fb:23:8f:89:f0:a6:
                    cb:f0:8d:c4:54:b4:b7:b4:33:12:a1:3e:bd:ee:03:
                    cf:55
                Exponent: 65537 (0x10001)
    Signature Algorithm: sha256WithRSAEncryption
         9d:37:6b:8f:dc:72:ee:83:e5:57:84:36:d1:6a:23:e4:c7:0b:
         d7:3c:74:77:4e:97:94:ff:17:d8:40:5f:f7:d3:65:92:38:1a:
         06:3b:cc:b3:82:45:b7:87:90:f5:fc:90:d3:47:f3:19:cd:3c:
         18:07:2b:7e:e6:24:e4:e8:2f:64:ef:1d:4e:36:33:9f:37:d7:
         10:49:31:80:2b:15:a6:b3:76:c7:dd:c8:e4:e7:84:7b:97:c6:
         c5:db:9e:a3:29:ff:c3:a1:88:8c:c0:aa:5c:d9:00:b3:89:d3:
         e8:3c:50:b9:7a:c1:3c:de:cf:46:af:89:a6:03:e6:09:99:ad:
         1c:7a:10:3a:c3:b5:ce:90:36:30:2e:76:dd:e5:d8:35:8c:8a:
         96:4f:59:20:83:c5:a8:5a:56:11:0d:6f:dd:a9:d1:a3:77:62:
         e4:ce:0e:5a:a7:84:37:1b:1f:e2:c1:74:78:71:92:4f:c8:79:
         29:47:3e:75:7d:8c:fe:da:65:c2:4d:c2:20:8d:5f:1f:7c:3d:
         57:21:e8:55:b3:40:3d:b3:62:9f:bf:46:85:28:0a:84:3b:11:
         15:31:5b:12:53:77:de:a6:4b:72:94:50:3c:ab:22:5f:63:78:
         a4:d3:29:9c:ce:b0:9e:37:33:fe:df:14:af:b2:8e:da:6e:b2:
         4b:39:e9:f8
-----BEGIN CERTIFICATE-----
MIIDazCCAlMCAQIwDQYJKoZIhvcNAQELBQAwgYAxCzAJBgNVBAYTAlVTMQswCQYD
VQQIDAJDQTEUMBIGA1UEBwwLU2FudGEgQ2xhcmExHjAcBgNVBAoMFVJlYWwgVGlt
ZSBJbm5vdmF0aW9uczEPMA0GA1UEAwwGUlRJIENBMR0wGwYJKoZIhvcNAQkBFg5z
ZWN1cmVAcnRpLmNvbTAeFw0yMjAzMTYxNDU0MDBaFw0yMzAzMTYxNDU0MDBaMHYx
CzAJBgNVBAYTAlVTMQswCQYDVQQIDAJDQTEeMBwGA1UECgwVUmVhbCBUaW1lIElu
bm92YXRpb25zMR4wHAYDVQQDDBVIZWxsb1NlY3VyZVN1YnNjcmliZXIxGjAYBgkq
hkiG9w0BCQEWC3N1YkBydGkuY29tMIIBIjANBgkqhkiG9w0BAQEFAAOCAQ8AMIIB
CgKCAQEA7KnKYfx1JAE6V3gn2D4KWEmMEMdCrrWH482XZGkWpwfqw22dhqkeRplt
JTtX3gYRSEK9VrnoVddWDq9d6iXqWW10NwFuhknpYEkl8032vj1OeVvcPA+IImvb
7LP6qGze15CrOWCpI2r1VpKjBD8+MziS7N+g8V4hoBMKxlJXqHTuYHJWexRYPny2
9Pysy8CvTr1/0mKCONvoLsiHNkypZqAKr9fauNonqbQh5Kz9Fcn1bdChh/wWX9Ac
Mnth6lHXTUtJkQtvgB6FtG6eSJ9DeEWPbRCfuSX/Qdy4kGPoB7xKl9dB+bSMk1r7
I4+J8KbL8I3EVLS3tDMSoT697gPPVQIDAQABMA0GCSqGSIb3DQEBCwUAA4IBAQCd
N2uP3HLug+VXhDbRaiPkxwvXPHR3TpeU/xfYQF/302WSOBoGO8yzgkW3h5D1/JDT
R/MZzTwYByt+5iTk6C9k7x1ONjOfN9cQSTGAKxWms3bH3cjk54R7l8bF256jKf/D
oYiMwKpc2QCzidPoPFC5esE83s9Gr4mmA+YJma0cehA6w7XOkDYwLnbd5dg1jIqW
T1kgg8WoWlYRDW/dqdGjd2Lkzg5ap4Q3Gx/iwXR4cZJPyHkpRz51fYz+2mXCTcIg
jV8ffD1XIehVs0A9s2Kfv0aFKAqEOxEVMVsSU3fepktylFA8qyJfY3ik0ymczrCe
NzP+3xSvso7abrJLOen4
-----END CERTIFICATE-----
