Certificate:
    Data:
        Version: 1 (0x0)
        Serial Number: 1 (0x1)
        Signature Algorithm: sha256WithRSAEncryption
        Issuer: C=US, ST=CA, L=Santa Clara, O=Real Time Innovations, CN=RTI CA/emailAddress=secure@rti.com
        Validity
            Not Before: Mar 17 17:16:39 2022 GMT
            Not After : Mar 17 17:16:39 2023 GMT
        Subject: C=US, ST=CA, O=Real Time Innovations, CN=HelloSecurePublisher/emailAddress=pub@rti.com
        Subject Public Key Info:
            Public Key Algorithm: rsaEncryption
                RSA Public-Key: (2048 bit)
                Modulus:
                    00:b9:71:8b:94:f0:3b:bb:f6:d5:d9:f7:50:f6:8f:
                    4a:44:05:03:42:e4:97:6b:24:11:0c:ba:58:43:08:
                    28:5c:52:74:84:1c:73:55:d9:5f:d2:b1:49:07:e3:
                    8b:4a:c7:17:ff:cb:6c:50:b8:bc:27:e3:30:1b:04:
                    23:bc:21:b4:9e:5a:c0:fb:ce:32:c8:f2:e6:96:40:
                    1c:b0:7c:15:36:ea:17:e4:ad:d7:e2:cd:4e:c3:ea:
                    26:85:d8:03:9a:02:13:d7:6d:19:37:90:ef:16:8a:
                    b0:e5:8a:1a:25:8f:24:34:46:99:23:1f:08:d9:fe:
                    5d:f4:7a:9f:1c:9f:68:54:04:5b:d0:00:67:fa:6c:
                    9a:e1:02:7f:8e:bc:25:d8:b8:e7:c2:57:79:46:ca:
                    b0:49:96:4e:5b:a6:e7:17:f4:55:25:b7:7f:fb:cc:
                    01:70:3d:9c:5d:7d:53:9a:2a:2c:66:65:49:2c:0d:
                    04:3e:88:ba:01:99:43:d0:51:e8:f7:97:5e:d5:c5:
                    49:a0:cf:98:d1:9c:9c:5a:0e:84:d5:87:cb:c1:4a:
                    15:96:95:9f:67:69:a8:63:16:2e:bd:b4:b3:fa:8e:
                    6c:83:ba:70:9f:f9:3f:75:65:5c:56:bb:26:fe:a1:
                    c1:cb:0b:c6:8d:de:e8:cd:97:13:98:8d:c4:71:2a:
                    ae:2d
                Exponent: 65537 (0x10001)
    Signature Algorithm: sha256WithRSAEncryption
         81:5e:a0:7d:96:d2:70:ae:95:3f:df:b5:fc:ba:34:b2:65:28:
         90:94:15:7c:8d:dd:fb:40:c7:73:ca:9a:37:de:37:3a:4a:89:
         5a:f8:b2:dc:60:ed:01:48:b2:1c:3d:f1:7d:6b:ec:2f:ac:7b:
         01:34:19:53:c2:41:d6:52:b3:27:92:78:3d:1f:06:7a:28:70:
         72:95:5b:ea:18:40:28:a8:78:37:fb:f4:82:da:a7:9d:3c:0f:
         f8:ed:67:44:51:ed:05:b4:8e:5f:d4:dd:61:81:e0:b1:96:50:
         5f:3d:e2:74:aa:0a:4c:09:c1:b2:e8:cd:7b:bc:ac:ec:86:1d:
         d6:83:7d:0c:b2:df:c9:56:f9:f2:7d:fe:90:51:bd:73:bd:6f:
         b2:a3:be:37:7b:64:e3:1c:1c:a7:8e:8f:f9:7c:1c:3c:0f:69:
         e3:c8:58:ef:21:e5:15:e4:38:aa:ed:fe:cb:f5:77:1f:b0:bb:
         00:10:bb:7d:30:40:5f:38:00:84:15:46:58:88:c2:b9:64:ed:
         60:5b:86:fa:a7:92:1a:a7:bc:09:24:c6:fe:f4:18:c8:1d:84:
         7d:91:0f:2b:5c:22:90:c3:ad:72:9b:0b:34:88:9e:7b:47:55:
         c6:8c:96:03:fa:0e:55:fe:dc:67:58:ca:06:1d:eb:08:45:ab:
         7e:1a:a9:6d
-----BEGIN CERTIFICATE-----
MIIDajCCAlICAQEwDQYJKoZIhvcNAQELBQAwgYAxCzAJBgNVBAYTAlVTMQswCQYD
VQQIDAJDQTEUMBIGA1UEBwwLU2FudGEgQ2xhcmExHjAcBgNVBAoMFVJlYWwgVGlt
ZSBJbm5vdmF0aW9uczEPMA0GA1UEAwwGUlRJIENBMR0wGwYJKoZIhvcNAQkBFg5z
ZWN1cmVAcnRpLmNvbTAeFw0yMjAzMTcxNzE2MzlaFw0yMzAzMTcxNzE2MzlaMHUx
CzAJBgNVBAYTAlVTMQswCQYDVQQIDAJDQTEeMBwGA1UECgwVUmVhbCBUaW1lIElu
bm92YXRpb25zMR0wGwYDVQQDDBRIZWxsb1NlY3VyZVB1Ymxpc2hlcjEaMBgGCSqG
SIb3DQEJARYLcHViQHJ0aS5jb20wggEiMA0GCSqGSIb3DQEBAQUAA4IBDwAwggEK
AoIBAQC5cYuU8Du79tXZ91D2j0pEBQNC5JdrJBEMulhDCChcUnSEHHNV2V/SsUkH
44tKxxf/y2xQuLwn4zAbBCO8IbSeWsD7zjLI8uaWQBywfBU26hfkrdfizU7D6iaF
2AOaAhPXbRk3kO8WirDliholjyQ0RpkjHwjZ/l30ep8cn2hUBFvQAGf6bJrhAn+O
vCXYuOfCV3lGyrBJlk5bpucX9FUlt3/7zAFwPZxdfVOaKixmZUksDQQ+iLoBmUPQ
Uej3l17VxUmgz5jRnJxaDoTVh8vBShWWlZ9naahjFi69tLP6jmyDunCf+T91ZVxW
uyb+ocHLC8aN3ujNlxOYjcRxKq4tAgMBAAEwDQYJKoZIhvcNAQELBQADggEBAIFe
oH2W0nCulT/ftfy6NLJlKJCUFXyN3ftAx3PKmjfeNzpKiVr4stxg7QFIshw98X1r
7C+sewE0GVPCQdZSsyeSeD0fBnoocHKVW+oYQCioeDf79ILap508D/jtZ0RR7QW0
jl/U3WGB4LGWUF894nSqCkwJwbLozXu8rOyGHdaDfQyy38lW+fJ9/pBRvXO9b7Kj
vjd7ZOMcHKeOj/l8HDwPaePIWO8h5RXkOKrt/sv1dx+wuwAQu30wQF84AIQVRliI
wrlk7WBbhvqnkhqnvAkkxv70GMgdhH2RDytcIpDDrXKbCzSInntHVcaMlgP6DlX+
3GdYygYd6whFq34aqW0=
-----END CERTIFICATE-----
