Certificate:
    Data:
        Version: 1 (0x0)
        Serial Number: 2 (0x2)
        Signature Algorithm: sha256WithRSAEncryption
        Issuer: C=US, ST=CA, L=Santa Clara, O=Real Time Innovations, CN=RTI CA/emailAddress=secure@rti.com
        Validity
            Not Before: Mar 17 17:16:52 2022 GMT
            Not After : Mar 17 17:16:52 2023 GMT
        Subject: C=US, ST=CA, O=Real Time Innovations, CN=HelloSecureSubscriber/emailAddress=sub@rti.com
        Subject Public Key Info:
            Public Key Algorithm: rsaEncryption
                RSA Public-Key: (2048 bit)
                Modulus:
                    00:b1:d9:ac:51:cd:07:62:b3:2b:64:9c:4b:95:1b:
                    e3:8f:c0:2f:45:ca:cf:df:97:1b:df:26:f6:2e:17:
                    73:cf:a6:32:97:c7:97:25:3c:cc:89:09:eb:21:ac:
                    89:27:2e:d5:d9:a1:b2:97:62:5b:bf:68:73:07:e5:
                    59:ae:93:20:5b:cd:72:9e:44:8f:f0:c1:6f:20:8e:
                    d1:57:7b:da:ae:c7:ba:49:3a:cf:e0:67:4b:6c:90:
                    3b:bc:2b:a5:f7:a0:62:01:df:46:d7:f3:8e:9c:4e:
                    dd:23:de:19:0d:5a:55:e7:d5:c3:08:80:eb:21:37:
                    b3:a2:39:f3:a9:1b:49:01:3a:e5:6e:8b:8e:99:af:
                    c9:e1:c6:2f:d6:48:32:16:46:2a:23:32:e8:6c:2e:
                    44:96:82:29:dc:e0:1f:cd:00:d9:a8:3a:d4:94:6a:
                    4b:d9:67:9a:2a:38:5f:7f:69:d0:0f:ef:2b:bf:69:
                    1e:d2:c5:ed:6f:03:15:36:87:df:dc:9f:7c:31:01:
                    14:9b:1b:4f:a8:21:18:67:ed:98:c9:db:af:58:ea:
                    21:d5:1e:1d:0e:78:c4:7a:24:97:bd:f0:80:36:8b:
                    19:6c:4d:46:47:39:c3:19:d4:f4:24:ca:78:8f:99:
                    b7:17:d8:6f:73:b7:48:3a:4c:29:31:e6:96:fd:a0:
                    03:dd
                Exponent: 65537 (0x10001)
    Signature Algorithm: sha256WithRSAEncryption
         77:bf:d5:00:46:ff:47:c7:14:e3:11:f6:06:ea:e2:79:30:2d:
         9d:cb:96:af:b5:c4:b0:c2:9a:a7:42:50:67:d2:67:82:7e:0c:
         f3:56:03:07:1d:ea:29:e8:d7:ef:0b:9b:0f:98:07:dc:b9:1d:
         c9:bb:bc:19:59:f1:cc:a5:0c:d7:46:d4:f9:cd:5a:f8:03:a6:
         aa:ab:21:78:e4:30:49:61:9b:77:d1:11:0f:3e:53:9a:68:0a:
         28:55:93:72:d8:4d:9d:27:79:38:5e:23:16:ca:76:8c:07:4c:
         8a:f8:72:ce:dd:81:66:a8:cf:89:67:e7:10:bf:3e:df:72:0a:
         c8:cd:13:4b:da:eb:61:0a:bc:c7:ab:bc:fd:dc:ff:64:de:cf:
         79:b0:cf:ee:fb:15:b3:86:be:85:4c:ea:67:e2:d2:ed:5f:9d:
         0b:ef:f8:51:eb:72:dc:22:f9:3f:76:ce:08:fc:93:76:a3:f1:
         d4:b8:62:6f:70:5e:df:78:1c:7f:33:86:40:60:ed:06:b3:d3:
         94:e7:96:09:8b:40:8c:b4:f6:39:ec:28:79:04:f7:db:57:88:
         9d:f8:2d:1a:b0:67:1e:26:d5:35:8a:bb:b4:fd:5b:ff:d1:01:
         b6:cf:3a:ee:dd:53:d4:bf:00:ce:5f:47:74:e7:32:2b:39:43:
         2c:e4:60:4a
-----BEGIN CERTIFICATE-----
MIIDazCCAlMCAQIwDQYJKoZIhvcNAQELBQAwgYAxCzAJBgNVBAYTAlVTMQswCQYD
VQQIDAJDQTEUMBIGA1UEBwwLU2FudGEgQ2xhcmExHjAcBgNVBAoMFVJlYWwgVGlt
ZSBJbm5vdmF0aW9uczEPMA0GA1UEAwwGUlRJIENBMR0wGwYJKoZIhvcNAQkBFg5z
ZWN1cmVAcnRpLmNvbTAeFw0yMjAzMTcxNzE2NTJaFw0yMzAzMTcxNzE2NTJaMHYx
CzAJBgNVBAYTAlVTMQswCQYDVQQIDAJDQTEeMBwGA1UECgwVUmVhbCBUaW1lIElu
bm92YXRpb25zMR4wHAYDVQQDDBVIZWxsb1NlY3VyZVN1YnNjcmliZXIxGjAYBgkq
hkiG9w0BCQEWC3N1YkBydGkuY29tMIIBIjANBgkqhkiG9w0BAQEFAAOCAQ8AMIIB
CgKCAQEAsdmsUc0HYrMrZJxLlRvjj8AvRcrP35cb3yb2Lhdzz6Yyl8eXJTzMiQnr
IayJJy7V2aGyl2Jbv2hzB+VZrpMgW81ynkSP8MFvII7RV3varse6STrP4GdLbJA7
vCul96BiAd9G1/OOnE7dI94ZDVpV59XDCIDrITezojnzqRtJATrlbouOma/J4cYv
1kgyFkYqIzLobC5EloIp3OAfzQDZqDrUlGpL2WeaKjhff2nQD+8rv2ke0sXtbwMV
Noff3J98MQEUmxtPqCEYZ+2YyduvWOoh1R4dDnjEeiSXvfCANosZbE1GRznDGdT0
JMp4j5m3F9hvc7dIOkwpMeaW/aAD3QIDAQABMA0GCSqGSIb3DQEBCwUAA4IBAQB3
v9UARv9HxxTjEfYG6uJ5MC2dy5avtcSwwpqnQlBn0meCfgzzVgMHHeop6NfvC5sP
mAfcuR3Ju7wZWfHMpQzXRtT5zVr4A6aqqyF45DBJYZt30REPPlOaaAooVZNy2E2d
J3k4XiMWynaMB0yK+HLO3YFmqM+JZ+cQvz7fcgrIzRNL2uthCrzHq7z93P9k3s95
sM/u+xWzhr6FTOpn4tLtX50L7/hR63LcIvk/ds4I/JN2o/HUuGJvcF7feBx/M4ZA
YO0Gs9OU55YJi0CMtPY57Ch5BPfbV4id+C0asGceJtU1iru0/Vv/0QG2zzru3VPU
vwDOX0d05zIrOUMs5GBK
-----END CERTIFICATE-----
